target datalayout = "e-m:e-p270:32:32-p271:32:32-p272:64:64-i64:64-i128:128-f80:128-n8:16:32:64-S128"
target triple = "x86_64-unknown-linux-gnu"

%"struct.OpenImageIO_v2_6_0::TypeDesc" = type { i8, i8, i8, i8, i32 }
%"class.OpenImageIO_v2_6_0::ImageSpec" = type { i32, i32, i32, i32, i32, i32, i32, i32, i32, i32, i32, i32, i32, i32, i32, i32, %"struct.OpenImageIO_v2_6_0::TypeDesc", %"class.std::vector", %"class.std::vector.3", i32, i32, i8, %"class.OpenImageIO_v2_6_0::ParamValueList" }
%"class.std::vector" = type { %"struct.std::_Vector_base" }
%"struct.std::_Vector_base" = type { %"struct.std::_Vector_base<OpenImageIO_v2_6_0::TypeDesc, std::allocator<OpenImageIO_v2_6_0::TypeDesc>>::_Vector_impl" }
%"struct.std::_Vector_base<OpenImageIO_v2_6_0::TypeDesc, std::allocator<OpenImageIO_v2_6_0::TypeDesc>>::_Vector_impl" = type { %"struct.std::_Vector_base<OpenImageIO_v2_6_0::TypeDesc, std::allocator<OpenImageIO_v2_6_0::TypeDesc>>::_Vector_impl_data" }
%"struct.std::_Vector_base<OpenImageIO_v2_6_0::TypeDesc, std::allocator<OpenImageIO_v2_6_0::TypeDesc>>::_Vector_impl_data" = type { ptr, ptr, ptr }
%"class.std::vector.3" = type { %"struct.std::_Vector_base.4" }
%"struct.std::_Vector_base.4" = type { %"struct.std::_Vector_base<std::__cxx11::basic_string<char>, std::allocator<std::__cxx11::basic_string<char>>>::_Vector_impl" }
%"struct.std::_Vector_base<std::__cxx11::basic_string<char>, std::allocator<std::__cxx11::basic_string<char>>>::_Vector_impl" = type { %"struct.std::_Vector_base<std::__cxx11::basic_string<char>, std::allocator<std::__cxx11::basic_string<char>>>::_Vector_impl_data" }
%"struct.std::_Vector_base<std::__cxx11::basic_string<char>, std::allocator<std::__cxx11::basic_string<char>>>::_Vector_impl_data" = type { ptr, ptr, ptr }
%"class.OpenImageIO_v2_6_0::ParamValueList" = type { %"class.std::vector.8" }
%"class.std::vector.8" = type { %"struct.std::_Vector_base.9" }
%"struct.std::_Vector_base.9" = type { %"struct.std::_Vector_base<OpenImageIO_v2_6_0::ParamValue, std::allocator<OpenImageIO_v2_6_0::ParamValue>>::_Vector_impl" }
%"struct.std::_Vector_base<OpenImageIO_v2_6_0::ParamValue, std::allocator<OpenImageIO_v2_6_0::ParamValue>>::_Vector_impl" = type { %"struct.std::_Vector_base<OpenImageIO_v2_6_0::ParamValue, std::allocator<OpenImageIO_v2_6_0::ParamValue>>::_Vector_impl_data" }
%"struct.std::_Vector_base<OpenImageIO_v2_6_0::ParamValue, std::allocator<OpenImageIO_v2_6_0::ParamValue>>::_Vector_impl_data" = type { ptr, ptr, ptr }

; Function Attrs: mustprogress nounwind uwtable
define linkonce_odr noundef i64 @_ZNSt14numeric_limitsImE3maxEv() #4 comdat align 2 {
entry:
  ret i64 -1
}

; Function Attrs: noreturn nounwind uwtable
define linkonce_odr hidden void @__clang_call_terminate(ptr noundef %0) #8 comdat {
  %2 = call ptr @__cxa_begin_catch(ptr %0) #3
  call void @_ZSt9terminatev() #21
  unreachable
}

; Function Attrs: mustprogress nounwind uwtable
define linkonce_odr hidden noundef i64 @_ZN18OpenImageIO_v2_6_014clamped_mult64Emm(i64 noundef %a, i64 noundef %b) #4 comdat {
entry:
  %retval = alloca i64, align 8
  %a.addr = alloca i64, align 8
  %b.addr = alloca i64, align 8
  %ab = alloca i64, align 8
  store i64 %a, ptr %a.addr, align 8
  store i64 %b, ptr %b.addr, align 8
  %0 = load i64, ptr %a.addr, align 8
  %1 = load i64, ptr %b.addr, align 8
  %mul = mul i64 %0, %1
  store i64 %mul, ptr %ab, align 8
  %2 = load i64, ptr %b.addr, align 8
  %tobool = icmp ne i64 %2, 0
  br i1 %tobool, label %land.lhs.true, label %if.else

land.lhs.true:                                    ; preds = %entry
  %3 = load i64, ptr %ab, align 8
  %4 = load i64, ptr %b.addr, align 8
  %div = udiv i64 %3, %4
  %5 = load i64, ptr %a.addr, align 8
  %cmp = icmp ne i64 %div, %5
  br i1 %cmp, label %if.then, label %if.else

if.then:                                          ; preds = %land.lhs.true
  %call = call noundef i64 @_ZNSt14numeric_limitsImE3maxEv() #3
  store i64 %call, ptr %retval, align 8
  br label %return

if.else:                                          ; preds = %land.lhs.true, %entry
  %6 = load i64, ptr %ab, align 8
  store i64 %6, ptr %retval, align 8
  br label %return

return:                                           ; preds = %if.else, %if.then
  %7 = load i64, ptr %retval, align 8
  ret i64 %7
}

; Function Attrs: mustprogress nounwind uwtable
define noundef i64 @_ZNK18OpenImageIO_v2_6_09ImageSpec12image_pixelsEv(ptr noundef nonnull align 8 dereferenceable(160) %this) #4 align 2 personality ptr @__gxx_personality_v0 {
entry:
  %retval = alloca i64, align 8
  %this.addr = alloca ptr, align 8
  %r = alloca i64, align 8
  store ptr %this, ptr %this.addr, align 8
  %this1 = load ptr, ptr %this.addr, align 8
  %width = getelementptr inbounds %"class.OpenImageIO_v2_6_0::ImageSpec", ptr %this1, i32 0, i32 3
  %0 = load i32, ptr %width, align 4
  %cmp = icmp slt i32 %0, 0
  br i1 %cmp, label %if.then, label %lor.lhs.false

lor.lhs.false:                                    ; preds = %entry
  %height = getelementptr inbounds %"class.OpenImageIO_v2_6_0::ImageSpec", ptr %this1, i32 0, i32 4
  %1 = load i32, ptr %height, align 8
  %cmp2 = icmp slt i32 %1, 0
  br i1 %cmp2, label %if.then, label %lor.lhs.false3

lor.lhs.false3:                                   ; preds = %lor.lhs.false
  %depth = getelementptr inbounds %"class.OpenImageIO_v2_6_0::ImageSpec", ptr %this1, i32 0, i32 5
  %2 = load i32, ptr %depth, align 4
  %cmp4 = icmp slt i32 %2, 0
  br i1 %cmp4, label %if.then, label %if.end

if.then:                                          ; preds = %lor.lhs.false3, %lor.lhs.false, %entry
  store i64 0, ptr %retval, align 8
  br label %return

if.end:                                           ; preds = %lor.lhs.false3
  %width5 = getelementptr inbounds %"class.OpenImageIO_v2_6_0::ImageSpec", ptr %this1, i32 0, i32 3
  %3 = load i32, ptr %width5, align 4
  %conv = sext i32 %3 to i64
  %height6 = getelementptr inbounds %"class.OpenImageIO_v2_6_0::ImageSpec", ptr %this1, i32 0, i32 4
  %4 = load i32, ptr %height6, align 8
  %conv7 = sext i32 %4 to i64
  %call = invoke noundef i64 @_ZN18OpenImageIO_v2_6_014clamped_mult64Emm(i64 noundef %conv, i64 noundef %conv7)
          to label %invoke.cont unwind label %terminate.lpad

invoke.cont:                                      ; preds = %if.end
  store i64 %call, ptr %r, align 8
  %depth8 = getelementptr inbounds %"class.OpenImageIO_v2_6_0::ImageSpec", ptr %this1, i32 0, i32 5
  %5 = load i32, ptr %depth8, align 4
  %cmp9 = icmp sgt i32 %5, 1
  br i1 %cmp9, label %if.then10, label %if.end15

if.then10:                                        ; preds = %invoke.cont
  %6 = load i64, ptr %r, align 8
  %depth11 = getelementptr inbounds %"class.OpenImageIO_v2_6_0::ImageSpec", ptr %this1, i32 0, i32 5
  %7 = load i32, ptr %depth11, align 4
  %conv12 = sext i32 %7 to i64
  %call14 = invoke noundef i64 @_ZN18OpenImageIO_v2_6_014clamped_mult64Emm(i64 noundef %6, i64 noundef %conv12)
          to label %invoke.cont13 unwind label %terminate.lpad

invoke.cont13:                                    ; preds = %if.then10
  store i64 %call14, ptr %r, align 8
  br label %if.end15

if.end15:                                         ; preds = %invoke.cont13, %invoke.cont
  %8 = load i64, ptr %r, align 8
  store i64 %8, ptr %retval, align 8
  br label %return

return:                                           ; preds = %if.end15, %if.then
  %9 = load i64, ptr %retval, align 8
  ret i64 %9

terminate.lpad:                                   ; preds = %if.then10, %if.end
  %10 = landingpad { ptr, i32 }
          catch ptr null
  %11 = extractvalue { ptr, i32 } %10, 0
  call void @__clang_call_terminate(ptr %11) #21
  unreachable
}