; Function Attrs: mustprogress nofree norecurse nosync nounwind willreturn memory(argmem: read) uwtable
define noundef i64 @_ZNK18OpenImageIO_v2_6_09ImageSpec12image_pixelsEv(ptr nocapture noundef nonnull readonly align 8 dereferenceable(160) %this) local_unnamed_addr #11 align 2 personality ptr @__gxx_personality_v0 {
entry:
  %width = getelementptr inbounds i8, ptr %this, i64 12
  %0 = load i32, ptr %width, align 4
  %cmp = icmp slt i32 %0, 0
  br i1 %cmp, label %return, label %lor.lhs.false

lor.lhs.false:                                    ; preds = %entry
  %height = getelementptr inbounds i8, ptr %this, i64 16
  %1 = load i32, ptr %height, align 8
  %cmp2 = icmp slt i32 %1, 0
  br i1 %cmp2, label %return, label %lor.lhs.false3

lor.lhs.false3:                                   ; preds = %lor.lhs.false
  %depth = getelementptr inbounds i8, ptr %this, i64 20
  %2 = load i32, ptr %depth, align 4
  %cmp4 = icmp slt i32 %2, 0
  br i1 %cmp4, label %return, label %if.end

if.end:                                           ; preds = %lor.lhs.false3
  %conv = zext nneg i32 %0 to i64
  %conv7 = zext nneg i32 %1 to i64
  %mul5.i10 = mul nuw nsw i64 %conv7, %conv
  %tobool.not.i = icmp eq i32 %1, 0
  %retval.0.i = select i1 %tobool.not.i, i64 0, i64 %mul5.i10
  %cmp9 = icmp ugt i32 %2, 1
  br i1 %cmp9, label %if.then10, label %return

if.then10:                                        ; preds = %if.end
  %conv12 = zext nneg i32 %2 to i64
  %mul5.i4 = tail call { i64, i1 } @llvm.umul.with.overflow.i64(i64 %conv12, i64 %retval.0.i)
  %mul.val.i5 = extractvalue { i64, i1 } %mul5.i4, 0
  %mul.ov.i7 = extractvalue { i64, i1 } %mul5.i4, 1
  %spec.select.i8 = select i1 %mul.ov.i7, i64 -1, i64 %mul.val.i5
  br label %return

return:                                           ; preds = %if.end, %if.then10, %entry, %lor.lhs.false, %lor.lhs.false3
  %retval.0 = phi i64 [ 0, %lor.lhs.false3 ], [ 0, %lor.lhs.false ], [ 0, %entry ], [ %spec.select.i8, %if.then10 ], [ %retval.0.i, %if.end ]
  ret i64 %retval.0
}